	.file	"hello.c"
	.section	.rodata
.LC0:
	.string	"Hello, World!"
.LC1:
	.string	"c is %d\n"
	.text
	.globl	main
	.type	main, @function
main:
.LFB0:
	.cfi_startproc
	pushq	%rbp
	.cfi_def_cfa_offset 16
	.cfi_offset 6, -16
	movq	%rsp, %rbp
	.cfi_def_cfa_register 6
	subq	$16, %rsp
	movl	$.LC0, %edi
	call	puts
	movl	$4, %esi
	movl	$3, %edi
	call	add
	movl	$3, -12(%rbp)
	movl	$4, -8(%rbp)
	movl	-12(%rbp), %edx
	movl	-8(%rbp), %eax
	addl	%edx, %eax
	movl	%eax, -4(%rbp)
	movl	-4(%rbp), %eax
	movl	%eax, %esi
	movl	$.LC1, %edi
	movl	$0, %eax
	call	printf
	movl	$0, %eax
	leave
	.cfi_def_cfa 7, 8
	ret
	.cfi_endproc
.LFE0:
	.size	main, .-main
	.section	.rodata
.LC2:
	.string	"The answer is %d\n"
	.text
	.globl	add
	.type	add, @function
add:
.LFB1:
	.cfi_startproc
	pushq	%rbp
	.cfi_def_cfa_offset 16
	.cfi_offset 6, -16
	movq	%rsp, %rbp
	.cfi_def_cfa_register 6
	subq	$32, %rsp
	movl	%edi, -20(%rbp)
	movl	%esi, -24(%rbp)
	movl	-20(%rbp), %edx
	movl	-24(%rbp), %eax
	addl	%edx, %eax
	movl	%eax, -4(%rbp)
	movl	-4(%rbp), %eax
	movl	%eax, %esi
	movl	$.LC2, %edi
	movl	$0, %eax
	call	printf
	nop
	leave
	.cfi_def_cfa 7, 8
	ret
	.cfi_endproc
.LFE1:
	.size	add, .-add
	.ident	"GCC: (Ubuntu 5.4.0-6ubuntu1~16.04.11) 5.4.0 20160609"
	.section	.note.GNU-stack,"",@progbits
